target datalayout = "e-m:e-p270:32:32-p271:32:32-p272:64:64-i64:64-i128:128-f80:128-n8:16:32:64-S128"
target triple = "x86_64-pc-linux-gnu"

; Function Attrs: nounwind uwtable
define i32 @ossl_DER_w_uint32(ptr noundef %0, i32 noundef %1, i32 noundef %2) #0 {
  %4 = alloca ptr, align 8
  %5 = alloca i32, align 4
  %6 = alloca i32, align 4
  store ptr %0, ptr %4, align 8, !tbaa !3
  store i32 %1, ptr %5, align 4, !tbaa !8
  store i32 %2, ptr %6, align 4, !tbaa !8
  %7 = load ptr, ptr %4, align 8, !tbaa !3
  %8 = load i32, ptr %5, align 4, !tbaa !8
  %9 = call i32 @int_der_w_integer(ptr noundef %7, i32 noundef %8, ptr noundef @int_put_bytes_uint32, ptr noundef %6)
  ret i32 %9
}

; Function Attrs: nounwind uwtable
define i32 @ossl_DER_w_bn(ptr noundef %0, i32 noundef %1, ptr noundef %2) #0 {
  %4 = alloca i32, align 4
  %5 = alloca ptr, align 8
  %6 = alloca i32, align 4
  %7 = alloca ptr, align 8
  store ptr %0, ptr %5, align 8, !tbaa !3
  store i32 %1, ptr %6, align 4, !tbaa !8
  store ptr %2, ptr %7, align 8, !tbaa !21
  %8 = load ptr, ptr %7, align 8, !tbaa !21
  %9 = icmp eq ptr %8, null
  br i1 %9, label %14, label %10

10:                                               ; preds = %3
  %11 = load ptr, ptr %7, align 8, !tbaa !21
  %12 = call i32 @BN_is_negative(ptr noundef %11)
  %13 = icmp ne i32 %12, 0
  br i1 %13, label %14, label %15

14:                                               ; preds = %10, %3
  store i32 0, ptr %4, align 4
  br label %28

15:                                               ; preds = %10
  %16 = load ptr, ptr %7, align 8, !tbaa !21
  %17 = call i32 @BN_is_zero(ptr noundef %16)
  %18 = icmp ne i32 %17, 0
  br i1 %18, label %19, label %23

19:                                               ; preds = %15
  %20 = load ptr, ptr %5, align 8, !tbaa !3
  %21 = load i32, ptr %6, align 4, !tbaa !8
  %22 = call i32 @ossl_DER_w_uint32(ptr noundef %20, i32 noundef %21, i32 noundef 0)
  store i32 %22, ptr %4, align 4
  br label %28

23:                                               ; preds = %15
  %24 = load ptr, ptr %5, align 8, !tbaa !3
  %25 = load i32, ptr %6, align 4, !tbaa !8
  %26 = load ptr, ptr %7, align 8, !tbaa !21
  %27 = call i32 @int_der_w_integer(ptr noundef %24, i32 noundef %25, ptr noundef @int_put_bytes_bn, ptr noundef %26)
  store i32 %27, ptr %4, align 4
  br label %28

28:                                               ; preds = %23, %19, %14
  %29 = load i32, ptr %4, align 4
  ret i32 %29
}