; Function Attrs: nounwind uwtable
define range(i32 0, 2) i32 @ossl_DER_w_bn(ptr noundef %0, i32 noundef %1, ptr noundef %2) local_unnamed_addr #0 {
  %4 = alloca i32, align 4
  %5 = icmp eq ptr %2, null
  br i1 %5, label %14, label %6

6:                                                ; preds = %3
  %7 = tail call i32 @BN_is_negative(ptr noundef nonnull %2) #4
  %.not = icmp eq i32 %7, 0
  br i1 %.not, label %8, label %14

8:                                                ; preds = %6
  %9 = tail call i32 @BN_is_zero(ptr noundef nonnull %2) #4
  %.not9 = icmp eq i32 %9, 0
  br i1 %.not9, label %12, label %10

10:                                               ; preds = %8
  call void @llvm.lifetime.start.p0(i64 4, ptr nonnull %4)
  store i32 0, ptr %4, align 4, !tbaa !11
  %11 = call fastcc range(i32 0, 2) i32 @int_der_w_integer(ptr noundef %0, i32 noundef %1, ptr noundef nonnull @int_put_bytes_uint32, ptr noundef %4)
  call void @llvm.lifetime.end.p0(i64 4, ptr nonnull %4)
  br label %14

12:                                               ; preds = %8
  %13 = tail call fastcc i32 @int_der_w_integer(ptr noundef %0, i32 noundef %1, ptr noundef nonnull @int_put_bytes_bn, ptr noundef %2)
  br label %14

14:                                               ; preds = %3, %6, %12, %10
  %.0 = phi i32 [ %11, %10 ], [ %13, %12 ], [ 0, %6 ], [ 0, %3 ]
  ret i32 %.0
}